target datalayout = "e-m:e-p270:32:32-p271:32:32-p272:64:64-i64:64-i128:128-f80:128-n8:16:32:64-S128"
target triple = "x86_64-pc-linux-gnu"

%struct.AVRational = type { i32, i32 }
%struct.AVCodecContext = type { ptr, i32, i32, ptr, i32, i32, ptr, ptr, ptr, i64, i32, i32, ptr, i32, %struct.AVRational, %struct.AVRational, %struct.AVRational, i32, i32, i32, i32, i32, %struct.AVRational, i32, i32, i32, i32, i32, i32, i32, i32, i32, i32, i32, ptr, ptr, i32, float, float, float, float, float, float, float, float, float, i32, i32, i32, i32, i32, i32, i32, i32, i32, i32, i32, i32, ptr, ptr, ptr, i32, i32, i32, i32, i32, i32, i32, i32, i32, i32, %struct.AVChannelLayout, i32, i32, i32, i32, i32, i32, i32, i32, ptr, i32, i32, i32, float, float, i32, i32, i32, i32, i32, ptr, i64, i64, float, float, i32, i32, ptr, ptr, i32, i32, i32, i32, i32, ptr, ptr, ptr, ptr, i32, i32, [8 x i64], i32, i32, i32, i32, i32, i32, i32, ptr, ptr, i32, i32, i32, i32, i32, i32, i32, i32, i32, i32, ptr, ptr, i32, i32, ptr, ptr, ptr, ptr, i32, i32, i64, i32, i32, i64, ptr, i64, ptr, i32, ptr, i32 }
%struct.AVChannelLayout = type { i32, i32, %union.anon.0, ptr }
%union.anon.0 = type { i64 }
%struct.MpegEncContext = type { ptr, i32, i32, i32, [12 x i32], i32, %struct.ScanTable, %struct.ScanTable, [64 x i8], [64 x i8], ptr, ptr, i32, i32, i32, i32, i32, i32, i32, i32, i32, i32, i32, i32, i32, i32, i32, i32, i32, i32, i32, i32, i64, i64, ptr, %struct.BufferPoolContext, i32, i32, %union.anon.1, i32, %struct.MPVWorkPicture, %struct.MPVWorkPicture, %struct.MPVWorkPicture, i32, [3 x i32], ptr, [3 x ptr], ptr, ptr, ptr, ptr, ptr, ptr, [3 x ptr], i32, ptr, ptr, ptr, ptr, %struct.ScratchpadContext, i32, i32, i32, i32, i32, i32, %struct.BlockDSPContext, %struct.H264ChromaContext, %struct.HpelDSPContext, %struct.IDCTDSPContext, %struct.QpelDSPContext, %struct.VideoDSPContext, %struct.H263DSPContext, ptr, [2 x [2 x ptr]], i32, i32, [2 x [4 x [2 x i32]]], [2 x [2 x i32]], [2 x [2 x [2 x i32]]], [2 x [64 x i16]], i32, i32, i32, i32, i32, [6 x i32], [6 x i32], [3 x ptr], ptr, [64 x i16], [64 x i16], [64 x i16], [64 x i16], i32, i32, %struct.GetBitContext, i32, i32, i32, i32, i32, i32, i32, i32, i32, i32, i32, i32, i32, i32, i32, i64, i64, i16, i16, i16, i16, i32, i32, i32, i32, i32, i32, i32, i32, i32, [3 x i32], i32, i32, i32, i32, i32, i32, %struct.GetBitContext, i32, [2 x [2 x i32]], i32, i32, i32, i32, i32, i32, i32, i32, i32, i32, i32, i32, i32, i32, [2 x i32], i32, i32, ptr, ptr, ptr, ptr, ptr, i32, i32, %struct.ERContext }
%struct.ScanTable = type { ptr, [64 x i8], [64 x i8] }
%struct.BufferPoolContext = type { ptr, ptr, ptr, ptr, ptr, i32, i32, i32 }
%union.anon.1 = type { [32 x ptr] }
%struct.MPVWorkPicture = type { [3 x ptr], [3 x i64], ptr, ptr, [2 x ptr], ptr, ptr, [2 x ptr], i32 }
%struct.ScratchpadContext = type { ptr, ptr, %union.anon.2, i32 }
%union.anon.2 = type { ptr }
%struct.BlockDSPContext = type { ptr, ptr, [2 x ptr] }
%struct.H264ChromaContext = type { [4 x ptr], [4 x ptr] }
%struct.HpelDSPContext = type { [4 x [4 x ptr]], [4 x [4 x ptr]], [4 x [4 x ptr]], [4 x ptr] }
%struct.IDCTDSPContext = type { ptr, ptr, ptr, ptr, ptr, ptr, [64 x i8], i32, i32 }
%struct.QpelDSPContext = type { [2 x [16 x ptr]], [2 x [16 x ptr]], [2 x [16 x ptr]] }
%struct.VideoDSPContext = type { ptr, ptr }
%struct.H263DSPContext = type { ptr, ptr }
%struct.GetBitContext = type { ptr, ptr, i32, i32, i32 }
%struct.ERContext = type { ptr, ptr, i32, ptr, i32, i32, i32, i64, i64, i32, i32, ptr, ptr, [3 x ptr], ptr, ptr, [2 x [4 x [2 x i32]]], %struct.ERPicture, %struct.ERPicture, %struct.ERPicture, [2 x ptr], [2 x ptr], i16, i16, i32, i32, ptr, ptr }
%struct.ERPicture = type { ptr, ptr, ptr, [2 x ptr], [2 x ptr], ptr, i32 }

; Function Attrs: nounwind uwtable
define internal i32 @slice_decode_thread(ptr noundef %0, ptr noundef %1) #1 {
  %3 = alloca i32, align 4
  %4 = alloca ptr, align 8
  %5 = alloca ptr, align 8
  %6 = alloca ptr, align 8
  %7 = alloca ptr, align 8
  %8 = alloca i32, align 4
  %9 = alloca i32, align 4
  %10 = alloca i32, align 4
  %11 = alloca i32, align 4
  %12 = alloca i32, align 4
  store ptr %0, ptr %4, align 8, !tbaa !4
  store ptr %1, ptr %5, align 8, !tbaa !154
  call void @llvm.lifetime.start.p0(i64 8, ptr %6) #13
  %13 = load ptr, ptr %5, align 8, !tbaa !154
  %14 = load ptr, ptr %13, align 8, !tbaa !154
  store ptr %14, ptr %6, align 8, !tbaa !31
  call void @llvm.lifetime.start.p0(i64 8, ptr %7) #13
  %15 = load ptr, ptr %6, align 8, !tbaa !31
  %16 = getelementptr inbounds nuw %struct.MpegEncContext, ptr %15, i32 0, i32 134
  %17 = getelementptr inbounds nuw %struct.GetBitContext, ptr %16, i32 0, i32 0
  %18 = load ptr, ptr %17, align 8, !tbaa !235
  store ptr %18, ptr %7, align 8, !tbaa !68
  call void @llvm.lifetime.start.p0(i64 4, ptr %8) #13
  %19 = load ptr, ptr %6, align 8, !tbaa !31
  %20 = getelementptr inbounds nuw %struct.MpegEncContext, ptr %19, i32 0, i32 36
  %21 = load i32, ptr %20, align 8, !tbaa !148
  store i32 %21, ptr %8, align 4, !tbaa !59
  call void @llvm.lifetime.start.p0(i64 4, ptr %9) #13
  %22 = load ptr, ptr %6, align 8, !tbaa !31
  %23 = getelementptr inbounds nuw %struct.MpegEncContext, ptr %22, i32 0, i32 137
  %24 = load i32, ptr %23, align 4, !tbaa !123
  %25 = icmp ne i32 %24, 3
  %26 = zext i1 %25 to i32
  store i32 %26, ptr %9, align 4, !tbaa !59
  %27 = load ptr, ptr %6, align 8, !tbaa !31
  %28 = getelementptr inbounds nuw %struct.MpegEncContext, ptr %27, i32 0, i32 37
  %29 = load i32, ptr %28, align 4, !tbaa !149
  %30 = load ptr, ptr %6, align 8, !tbaa !31
  %31 = getelementptr inbounds nuw %struct.MpegEncContext, ptr %30, i32 0, i32 36
  %32 = load i32, ptr %31, align 8, !tbaa !148
  %33 = sub nsw i32 %29, %32
  %34 = mul nsw i32 3, %33
  %35 = load ptr, ptr %6, align 8, !tbaa !31
  %36 = getelementptr inbounds nuw %struct.MpegEncContext, ptr %35, i32 0, i32 25
  %37 = load i32, ptr %36, align 4, !tbaa !205
  %38 = mul nsw i32 %34, %37
  %39 = load i32, ptr %9, align 4, !tbaa !59
  %40 = ashr i32 %38, %39
  %41 = load ptr, ptr %6, align 8, !tbaa !31
  %42 = getelementptr inbounds nuw %struct.MpegEncContext, ptr %41, i32 0, i32 161
  %43 = getelementptr inbounds nuw %struct.ERContext, ptr %42, i32 0, i32 9
  store atomic i32 %40, ptr %43 seq_cst, align 4, !tbaa !132
  br label %44

44:                                               ; preds = %178, %2
  call void @llvm.lifetime.start.p0(i64 4, ptr %10) #13
  call void @llvm.lifetime.start.p0(i64 4, ptr %11) #13
  %45 = load ptr, ptr %6, align 8, !tbaa !31
  %46 = load i32, ptr %8, align 4, !tbaa !59
  %47 = load ptr, ptr %6, align 8, !tbaa !31
  %48 = getelementptr inbounds nuw %struct.MpegEncContext, ptr %47, i32 0, i32 134
  %49 = getelementptr inbounds nuw %struct.GetBitContext, ptr %48, i32 0, i32 1
  %50 = load ptr, ptr %49, align 8, !tbaa !236
  %51 = load ptr, ptr %7, align 8, !tbaa !68
  %52 = ptrtoint ptr %50 to i64
  %53 = ptrtoint ptr %51 to i64
  %54 = sub i64 %52, %53
  %55 = trunc i64 %54 to i32
  %56 = call i32 @mpeg_decode_slice(ptr noundef %45, i32 noundef %46, ptr noundef %7, i32 noundef %55)
  store i32 %56, ptr %11, align 4, !tbaa !59
  br label %57

57:                                               ; preds = %44
  br label %58

58:                                               ; preds = %57
  br label %59

59:                                               ; preds = %58
  br label %60

60:                                               ; preds = %59
  br label %61

61:                                               ; preds = %60
  br label %62

62:                                               ; preds = %61
  %63 = load i32, ptr %11, align 4, !tbaa !59
  %64 = icmp slt i32 %63, 0
  br i1 %64, label %65, label %99

65:                                               ; preds = %62
  %66 = load ptr, ptr %4, align 8, !tbaa !4
  %67 = getelementptr inbounds nuw %struct.AVCodecContext, ptr %66, i32 0, i32 104
  %68 = load i32, ptr %67, align 8, !tbaa !83
  %69 = and i32 %68, 8
  %70 = icmp ne i32 %69, 0
  br i1 %70, label %71, label %73

71:                                               ; preds = %65
  %72 = load i32, ptr %11, align 4, !tbaa !59
  store i32 %72, ptr %3, align 4
  store i32 1, ptr %12, align 4
  br label %176

73:                                               ; preds = %65
  %74 = load ptr, ptr %6, align 8, !tbaa !31
  %75 = getelementptr inbounds nuw %struct.MpegEncContext, ptr %74, i32 0, i32 94
  %76 = load i32, ptr %75, align 8, !tbaa !150
  %77 = icmp sge i32 %76, 0
  br i1 %77, label %78, label %98

78:                                               ; preds = %73
  %79 = load ptr, ptr %6, align 8, !tbaa !31
  %80 = getelementptr inbounds nuw %struct.MpegEncContext, ptr %79, i32 0, i32 95
  %81 = load i32, ptr %80, align 4, !tbaa !151
  %82 = icmp sge i32 %81, 0
  br i1 %82, label %83, label %98

83:                                               ; preds = %78
  %84 = load ptr, ptr %6, align 8, !tbaa !31
  %85 = getelementptr inbounds nuw %struct.MpegEncContext, ptr %84, i32 0, i32 161
  %86 = load ptr, ptr %6, align 8, !tbaa !31
  %87 = getelementptr inbounds nuw %struct.MpegEncContext, ptr %86, i32 0, i32 94
  %88 = load i32, ptr %87, align 8, !tbaa !150
  %89 = load ptr, ptr %6, align 8, !tbaa !31
  %90 = getelementptr inbounds nuw %struct.MpegEncContext, ptr %89, i32 0, i32 95
  %91 = load i32, ptr %90, align 4, !tbaa !151
  %92 = load ptr, ptr %6, align 8, !tbaa !31
  %93 = getelementptr inbounds nuw %struct.MpegEncContext, ptr %92, i32 0, i32 82
  %94 = load i32, ptr %93, align 4, !tbaa !152
  %95 = load ptr, ptr %6, align 8, !tbaa !31
  %96 = getelementptr inbounds nuw %struct.MpegEncContext, ptr %95, i32 0, i32 83
  %97 = load i32, ptr %96, align 8, !tbaa !153
  call void @ff_er_add_slice(ptr noundef %85, i32 noundef %88, i32 noundef %91, i32 noundef %94, i32 noundef %97, i32 noundef 14)
  br label %98

98:                                               ; preds = %83, %78, %73
  br label %115

99:                                               ; preds = %62
  %100 = load ptr, ptr %6, align 8, !tbaa !31
  %101 = getelementptr inbounds nuw %struct.MpegEncContext, ptr %100, i32 0, i32 161
  %102 = load ptr, ptr %6, align 8, !tbaa !31
  %103 = getelementptr inbounds nuw %struct.MpegEncContext, ptr %102, i32 0, i32 94
  %104 = load i32, ptr %103, align 8, !tbaa !150
  %105 = load ptr, ptr %6, align 8, !tbaa !31
  %106 = getelementptr inbounds nuw %struct.MpegEncContext, ptr %105, i32 0, i32 95
  %107 = load i32, ptr %106, align 4, !tbaa !151
  %108 = load ptr, ptr %6, align 8, !tbaa !31
  %109 = getelementptr inbounds nuw %struct.MpegEncContext, ptr %108, i32 0, i32 82
  %110 = load i32, ptr %109, align 4, !tbaa !152
  %111 = sub nsw i32 %110, 1
  %112 = load ptr, ptr %6, align 8, !tbaa !31
  %113 = getelementptr inbounds nuw %struct.MpegEncContext, ptr %112, i32 0, i32 83
  %114 = load i32, ptr %113, align 8, !tbaa !153
  call void @ff_er_add_slice(ptr noundef %101, i32 noundef %104, i32 noundef %107, i32 noundef %111, i32 noundef %114, i32 noundef 112)
  br label %115

115:                                              ; preds = %99, %98
  %116 = load ptr, ptr %6, align 8, !tbaa !31
  %117 = getelementptr inbounds nuw %struct.MpegEncContext, ptr %116, i32 0, i32 83
  %118 = load i32, ptr %117, align 8, !tbaa !153
  %119 = load ptr, ptr %6, align 8, !tbaa !31
  %120 = getelementptr inbounds nuw %struct.MpegEncContext, ptr %119, i32 0, i32 37
  %121 = load i32, ptr %120, align 4, !tbaa !149
  %122 = icmp eq i32 %118, %121
  br i1 %122, label %123, label %124

123:                                              ; preds = %115
  store i32 0, ptr %3, align 4
  store i32 1, ptr %12, align 4
  br label %176

124:                                              ; preds = %115
  store i32 -1, ptr %10, align 4, !tbaa !59
  %125 = load ptr, ptr %7, align 8, !tbaa !68
  %126 = load ptr, ptr %6, align 8, !tbaa !31
  %127 = getelementptr inbounds nuw %struct.MpegEncContext, ptr %126, i32 0, i32 134
  %128 = getelementptr inbounds nuw %struct.GetBitContext, ptr %127, i32 0, i32 1
  %129 = load ptr, ptr %128, align 8, !tbaa !236
  %130 = call ptr @avpriv_find_start_code(ptr noundef %125, ptr noundef %129, ptr noundef %10)
  store ptr %130, ptr %7, align 8, !tbaa !68
  %131 = load i32, ptr %10, align 4, !tbaa !59
  %132 = icmp ult i32 %131, 257
  br i1 %132, label %136, label %133

133:                                              ; preds = %124
  %134 = load i32, ptr %10, align 4, !tbaa !59
  %135 = icmp ugt i32 %134, 431
  br i1 %135, label %136, label %137

136:                                              ; preds = %133, %124
  store i32 -1094995529, ptr %3, align 4
  store i32 1, ptr %12, align 4
  br label %176

137:                                              ; preds = %133
  %138 = load i32, ptr %10, align 4, !tbaa !59
  %139 = sub i32 %138, 257
  store i32 %139, ptr %8, align 4, !tbaa !59
  %140 = load ptr, ptr %6, align 8, !tbaa !31
  %141 = getelementptr inbounds nuw %struct.MpegEncContext, ptr %140, i32 0, i32 19
  %142 = load i32, ptr %141, align 4, !tbaa !127
  %143 = icmp ne i32 %142, 1
  br i1 %143, label %144, label %157

144:                                              ; preds = %137
  %145 = load ptr, ptr %6, align 8, !tbaa !31
  %146 = getelementptr inbounds nuw %struct.MpegEncContext, ptr %145, i32 0, i32 26
  %147 = load i32, ptr %146, align 8, !tbaa !136
  %148 = icmp sgt i32 %147, 175
  br i1 %148, label %149, label %157

149:                                              ; preds = %144
  %150 = load ptr, ptr %7, align 8, !tbaa !68
  %151 = load i8, ptr %150, align 1, !tbaa !56
  %152 = zext i8 %151 to i32
  %153 = and i32 %152, 224
  %154 = shl i32 %153, 2
  %155 = load i32, ptr %8, align 4, !tbaa !59
  %156 = add nsw i32 %155, %154
  store i32 %156, ptr %8, align 4, !tbaa !59
  br label %157

157:                                              ; preds = %149, %144, %137
  %158 = load i32, ptr %9, align 4, !tbaa !59
  %159 = load i32, ptr %8, align 4, !tbaa !59
  %160 = shl i32 %159, %158
  store i32 %160, ptr %8, align 4, !tbaa !59
  %161 = load ptr, ptr %6, align 8, !tbaa !31
  %162 = getelementptr inbounds nuw %struct.MpegEncContext, ptr %161, i32 0, i32 137
  %163 = load i32, ptr %162, align 4, !tbaa !123
  %164 = icmp eq i32 %163, 2
  br i1 %164, label %165, label %168

165:                                              ; preds = %157
  %166 = load i32, ptr %8, align 4, !tbaa !59
  %167 = add nsw i32 %166, 1
  store i32 %167, ptr %8, align 4, !tbaa !59
  br label %168

168:                                              ; preds = %165, %157
  %169 = load i32, ptr %8, align 4, !tbaa !59
  %170 = load ptr, ptr %6, align 8, !tbaa !31
  %171 = getelementptr inbounds nuw %struct.MpegEncContext, ptr %170, i32 0, i32 37
  %172 = load i32, ptr %171, align 4, !tbaa !149
  %173 = icmp sge i32 %169, %172
  br i1 %173, label %174, label %175

174:                                              ; preds = %168
  store i32 -1094995529, ptr %3, align 4
  store i32 1, ptr %12, align 4
  br label %176

175:                                              ; preds = %168
  store i32 0, ptr %12, align 4
  br label %176

176:                                              ; preds = %175, %174, %136, %123, %71
  call void @llvm.lifetime.end.p0(i64 4, ptr %11) #13
  call void @llvm.lifetime.end.p0(i64 4, ptr %10) #13
  %177 = load i32, ptr %12, align 4
  switch i32 %177, label %179 [
    i32 0, label %178
  ]

178:                                              ; preds = %176
  br label %44

179:                                              ; preds = %176
  call void @llvm.lifetime.end.p0(i64 4, ptr %9) #13
  call void @llvm.lifetime.end.p0(i64 4, ptr %8) #13
  call void @llvm.lifetime.end.p0(i64 8, ptr %7) #13
  call void @llvm.lifetime.end.p0(i64 8, ptr %6) #13
  %180 = load i32, ptr %3, align 4
  ret i32 %180
}