; Function Attrs: nounwind uwtable
define internal range(i32 -2147483648, 1) i32 @slice_decode_thread(ptr noundef readonly captures(none) %0, ptr noundef readonly captures(none) %1) #1 {
  %3 = alloca ptr, align 8
  %4 = alloca i32, align 4
  %5 = load ptr, ptr %1, align 8, !tbaa !245
  call void @llvm.lifetime.start.p0(i64 8, ptr nonnull %3) #12
  %6 = getelementptr inbounds nuw i8, ptr %5, i64 4160
  %7 = load ptr, ptr %6, align 8, !tbaa !237
  store ptr %7, ptr %3, align 8, !tbaa !119
  %8 = getelementptr inbounds nuw i8, ptr %5, i64 648
  %9 = load i32, ptr %8, align 8, !tbaa !195
  %10 = getelementptr inbounds nuw i8, ptr %5, i64 4212
  %11 = load i32, ptr %10, align 4, !tbaa !82
  %12 = icmp ne i32 %11, 3
  %13 = zext i1 %12 to i32
  %14 = getelementptr inbounds nuw i8, ptr %5, i64 652
  %15 = load i32, ptr %14, align 4, !tbaa !196
  %16 = sub nsw i32 %15, %9
  %17 = mul nsw i32 %16, 3
  %18 = getelementptr inbounds nuw i8, ptr %5, i64 540
  %19 = load i32, ptr %18, align 4, !tbaa !201
  %20 = mul nsw i32 %17, %19
  %21 = ashr i32 %20, %13
  %22 = getelementptr inbounds nuw i8, ptr %5, i64 4336
  %23 = getelementptr inbounds nuw i8, ptr %5, i64 4400
  store atomic i32 %21, ptr %23 seq_cst, align 4, !tbaa !136
  %24 = getelementptr inbounds nuw i8, ptr %5, i64 4168
  %25 = getelementptr inbounds nuw i8, ptr %5, i64 3960
  %26 = getelementptr inbounds nuw i8, ptr %5, i64 3964
  %27 = getelementptr inbounds nuw i8, ptr %5, i64 3348
  %28 = getelementptr inbounds nuw i8, ptr %5, i64 3352
  %29 = getelementptr inbounds nuw i8, ptr %0, i64 528
  %30 = getelementptr inbounds nuw i8, ptr %5, i64 516
  %31 = getelementptr inbounds nuw i8, ptr %5, i64 544
  br label %32

32:                                               ; preds = %81, %2
  %33 = phi ptr [ %7, %2 ], [ %66, %81 ]
  %.042 = phi i32 [ %9, %2 ], [ %spec.select, %81 ]
  call void @llvm.lifetime.start.p0(i64 4, ptr nonnull %4) #12
  %34 = load ptr, ptr %24, align 8, !tbaa !246
  %35 = ptrtoint ptr %34 to i64
  %36 = ptrtoint ptr %33 to i64
  %37 = sub i64 %35, %36
  %38 = trunc i64 %37 to i32
  %39 = call fastcc i32 @mpeg_decode_slice(ptr noundef nonnull %5, i32 noundef %.042, ptr noundef %3, i32 noundef %38)
  %40 = icmp slt i32 %39, 0
  br i1 %40, label %41, label %53

41:                                               ; preds = %32
  %42 = load i32, ptr %29, align 8, !tbaa !95
  %43 = and i32 %42, 8
  %.not = icmp eq i32 %43, 0
  br i1 %.not, label %44, label %.thread

44:                                               ; preds = %41
  %45 = load i32, ptr %25, align 8, !tbaa !197
  %46 = icmp sgt i32 %45, -1
  br i1 %46, label %47, label %59

47:                                               ; preds = %44
  %48 = load i32, ptr %26, align 4, !tbaa !198
  %49 = icmp sgt i32 %48, -1
  br i1 %49, label %50, label %59

50:                                               ; preds = %47
  %51 = load i32, ptr %27, align 4, !tbaa !199
  %52 = load i32, ptr %28, align 8, !tbaa !200
  call void @ff_er_add_slice(ptr noundef nonnull %22, i32 noundef %45, i32 noundef %48, i32 noundef %51, i32 noundef %52, i32 noundef 14) #12
  br label %59

53:                                               ; preds = %32
  %54 = load i32, ptr %25, align 8, !tbaa !197
  %55 = load i32, ptr %26, align 4, !tbaa !198
  %56 = load i32, ptr %27, align 4, !tbaa !199
  %57 = add nsw i32 %56, -1
  %58 = load i32, ptr %28, align 8, !tbaa !200
  call void @ff_er_add_slice(ptr noundef nonnull %22, i32 noundef %54, i32 noundef %55, i32 noundef %57, i32 noundef %58, i32 noundef 112) #12
  br label %59

59:                                               ; preds = %44, %47, %50, %53
  %60 = load i32, ptr %28, align 8, !tbaa !200
  %61 = load i32, ptr %14, align 4, !tbaa !196
  %62 = icmp eq i32 %60, %61
  br i1 %62, label %.thread, label %63

63:                                               ; preds = %59
  store i32 -1, ptr %4, align 4, !tbaa !64
  %64 = load ptr, ptr %3, align 8, !tbaa !119
  %65 = load ptr, ptr %24, align 8, !tbaa !246
  %66 = call ptr @avpriv_find_start_code(ptr noundef %64, ptr noundef %65, ptr noundef nonnull %4) #12
  store ptr %66, ptr %3, align 8, !tbaa !119
  %67 = load i32, ptr %4, align 4, !tbaa !64
  %68 = add i32 %67, -432
  %or.cond = icmp ult i32 %68, -175
  br i1 %or.cond, label %.thread, label %69

69:                                               ; preds = %63
  %70 = add nsw i32 %67, -257
  %71 = load i32, ptr %30, align 4, !tbaa !85
  %.not48 = icmp eq i32 %71, 1
  br i1 %.not48, label %81, label %72

72:                                               ; preds = %69
  %73 = load i32, ptr %31, align 8, !tbaa !187
  %74 = icmp sgt i32 %73, 175
  br i1 %74, label %75, label %81

75:                                               ; preds = %72
  %76 = load i8, ptr %66, align 1, !tbaa !58
  %77 = and i8 %76, -32
  %78 = zext i8 %77 to i32
  %79 = shl nuw nsw i32 %78, 2
  %80 = add nuw nsw i32 %79, %70
  br label %81

.thread:                                          ; preds = %41, %59, %63
  %.1.ph = phi i32 [ -1094995529, %63 ], [ 0, %59 ], [ %39, %41 ]
  call void @llvm.lifetime.end.p0(i64 4, ptr nonnull %4) #12
  br label %.loopexit

81:                                               ; preds = %69, %72, %75
  %.2 = phi i32 [ %80, %75 ], [ %70, %72 ], [ %70, %69 ]
  %82 = shl nuw nsw i32 %.2, %13
  %83 = load i32, ptr %10, align 4, !tbaa !82
  %84 = icmp eq i32 %83, 2
  %85 = zext i1 %84 to i32
  %spec.select = add nuw nsw i32 %82, %85
  %86 = load i32, ptr %14, align 4, !tbaa !196
  %.not49 = icmp slt i32 %spec.select, %86
  call void @llvm.lifetime.end.p0(i64 4, ptr nonnull %4) #12
  br i1 %.not49, label %32, label %.loopexit

.loopexit:                                        ; preds = %81, %.thread
  %.155 = phi i32 [ %.1.ph, %.thread ], [ -1094995529, %81 ]
  call void @llvm.lifetime.end.p0(i64 8, ptr nonnull %3) #12
  ret i32 %.155
}